; ModuleID = '21/1643.c'
source_filename = "21/1643.c"
target datalayout = "e-m:e-p270:32:32-p271:32:32-p272:64:64-i64:64-f80:128-n8:16:32:64-S128"
target triple = "x86_64-pc-linux-gnu"

@.str = private unnamed_addr constant [4 x i8] c"%d\0A\00", align 1
@.str.1 = private unnamed_addr constant [3 x i8] c"%d\00", align 1
@.str.2 = private unnamed_addr constant [4 x i8] c",%d\00", align 1

; Function Attrs: noinline nounwind uwtable
define dso_local i32 @main() #0 {
  %1 = alloca i32, align 4
  %2 = alloca i32, align 4
  %3 = alloca i32, align 4
  %4 = alloca i32, align 4
  %5 = alloca [350 x i32], align 16
  %6 = alloca i32, align 4
  %7 = alloca i32, align 4
  %8 = alloca [350 x i32], align 16
  store i32 0, i32* %1, align 4
  store i32 0, i32* %3, align 4
  %9 = call i32 (i8*, ...) @__isoc99_scanf(i8* getelementptr inbounds ([4 x i8], [4 x i8]* @.str, i64 0, i64 0), i32* %2)
  store i32 0, i32* %4, align 4
  br label %10

10:                                               ; preds = %25, %0
  %11 = load i32, i32* %4, align 4
  %12 = load i32, i32* %2, align 4
  %13 = icmp slt i32 %11, %12
  br i1 %13, label %14, label %28

14:                                               ; preds = %10
  %15 = load i32, i32* %4, align 4
  %16 = sext i32 %15 to i64
  %17 = getelementptr inbounds [350 x i32], [350 x i32]* %5, i64 0, i64 %16
  %18 = call i32 (i8*, ...) @__isoc99_scanf(i8* getelementptr inbounds ([3 x i8], [3 x i8]* @.str.1, i64 0, i64 0), i32* %17)
  %19 = load i32, i32* %3, align 4
  %20 = load i32, i32* %4, align 4
  %21 = sext i32 %20 to i64
  %22 = getelementptr inbounds [350 x i32], [350 x i32]* %5, i64 0, i64 %21
  %23 = load i32, i32* %22, align 4
  %24 = add nsw i32 %19, %23
  store i32 %24, i32* %3, align 4
  br label %25

25:                                               ; preds = %14
  %26 = load i32, i32* %4, align 4
  %27 = add nsw i32 %26, 1
  store i32 %27, i32* %4, align 4
  br label %10

28:                                               ; preds = %10
  %29 = getelementptr inbounds [350 x i32], [350 x i32]* %5, i64 0, i64 0
  %30 = load i32, i32* %29, align 16
  %31 = load i32, i32* %2, align 4
  %32 = mul nsw i32 %30, %31
  %33 = load i32, i32* %3, align 4
  %34 = sub nsw i32 %32, %33
  %35 = call i32 @abs(i32 %34) #3
  %36 = getelementptr inbounds [350 x i32], [350 x i32]* %8, i64 0, i64 0
  store i32 %35, i32* %36, align 16
  %37 = getelementptr inbounds [350 x i32], [350 x i32]* %8, i64 0, i64 0
  %38 = load i32, i32* %37, align 16
  store i32 %38, i32* %6, align 4
  store i32 0, i32* %7, align 4
  store i32 1, i32* %4, align 4
  br label %39

39:                                               ; preds = %69, %28
  %40 = load i32, i32* %4, align 4
  %41 = load i32, i32* %2, align 4
  %42 = icmp slt i32 %40, %41
  br i1 %42, label %43, label %72

43:                                               ; preds = %39
  %44 = load i32, i32* %4, align 4
  %45 = sext i32 %44 to i64
  %46 = getelementptr inbounds [350 x i32], [350 x i32]* %5, i64 0, i64 %45
  %47 = load i32, i32* %46, align 4
  %48 = load i32, i32* %2, align 4
  %49 = mul nsw i32 %47, %48
  %50 = load i32, i32* %3, align 4
  %51 = sub nsw i32 %49, %50
  %52 = call i32 @abs(i32 %51) #3
  %53 = load i32, i32* %4, align 4
  %54 = sext i32 %53 to i64
  %55 = getelementptr inbounds [350 x i32], [350 x i32]* %8, i64 0, i64 %54
  store i32 %52, i32* %55, align 4
  %56 = load i32, i32* %4, align 4
  %57 = sext i32 %56 to i64
  %58 = getelementptr inbounds [350 x i32], [350 x i32]* %8, i64 0, i64 %57
  %59 = load i32, i32* %58, align 4
  %60 = load i32, i32* %6, align 4
  %61 = icmp sgt i32 %59, %60
  br i1 %61, label %62, label %68

62:                                               ; preds = %43
  %63 = load i32, i32* %4, align 4
  %64 = sext i32 %63 to i64
  %65 = getelementptr inbounds [350 x i32], [350 x i32]* %8, i64 0, i64 %64
  %66 = load i32, i32* %65, align 4
  store i32 %66, i32* %6, align 4
  %67 = load i32, i32* %4, align 4
  store i32 %67, i32* %7, align 4
  br label %68

68:                                               ; preds = %62, %43
  br label %69

69:                                               ; preds = %68
  %70 = load i32, i32* %4, align 4
  %71 = add nsw i32 %70, 1
  store i32 %71, i32* %4, align 4
  br label %39

72:                                               ; preds = %39
  store i32 0, i32* %4, align 4
  br label %73

73:                                               ; preds = %102, %72
  %74 = load i32, i32* %4, align 4
  %75 = load i32, i32* %2, align 4
  %76 = icmp slt i32 %74, %75
  br i1 %76, label %77, label %105

77:                                               ; preds = %73
  %78 = load i32, i32* %4, align 4
  %79 = sext i32 %78 to i64
  %80 = getelementptr inbounds [350 x i32], [350 x i32]* %8, i64 0, i64 %79
  %81 = load i32, i32* %80, align 4
  %82 = load i32, i32* %6, align 4
  %83 = icmp eq i32 %81, %82
  br i1 %83, label %84, label %101

84:                                               ; preds = %77
  %85 = load i32, i32* %4, align 4
  %86 = load i32, i32* %7, align 4
  %87 = icmp eq i32 %85, %86
  br i1 %87, label %88, label %94

88:                                               ; preds = %84
  %89 = load i32, i32* %4, align 4
  %90 = sext i32 %89 to i64
  %91 = getelementptr inbounds [350 x i32], [350 x i32]* %5, i64 0, i64 %90
  %92 = load i32, i32* %91, align 4
  %93 = call i32 (i8*, ...) @printf(i8* getelementptr inbounds ([3 x i8], [3 x i8]* @.str.1, i64 0, i64 0), i32 %92)
  br label %100

94:                                               ; preds = %84
  %95 = load i32, i32* %4, align 4
  %96 = sext i32 %95 to i64
  %97 = getelementptr inbounds [350 x i32], [350 x i32]* %5, i64 0, i64 %96
  %98 = load i32, i32* %97, align 4
  %99 = call i32 (i8*, ...) @printf(i8* getelementptr inbounds ([4 x i8], [4 x i8]* @.str.2, i64 0, i64 0), i32 %98)
  br label %100

100:                                              ; preds = %94, %88
  br label %101

101:                                              ; preds = %100, %77
  br label %102

102:                                              ; preds = %101
  %103 = load i32, i32* %4, align 4
  %104 = add nsw i32 %103, 1
  store i32 %104, i32* %4, align 4
  br label %73

105:                                              ; preds = %73
  ret i32 0
}

declare dso_local i32 @__isoc99_scanf(i8*, ...) #1

; Function Attrs: nounwind readnone
declare dso_local i32 @abs(i32) #2

declare dso_local i32 @printf(i8*, ...) #1


!llvm.module.flags = !{!0}
!llvm.ident = !{!1}

!0 = !{i32 1, !"wchar_size", i32 4}
!1 = !{!"clang version 10.0.0-4ubuntu1 "}
